target datalayout = "e-m:e-p270:32:32-p271:32:32-p272:64:64-i64:64-i128:128-f80:128-n8:16:32:64-S128"
target triple = "x86_64-pc-linux-gnu"

%struct.expert_field = type { i32, i32 }
%struct.isis_data = type { i8, i8, i16, ptr, ptr }

@hf_isis_hello_checksum = internal global i32 0, align 4
@hf_isis_hello_checksum_status = internal global i32 0, align 4
@ei_isis_hello_bad_checksum = internal global %struct.expert_field zeroinitializer, align 4
@ei_isis_hello_short_clv = internal global %struct.expert_field zeroinitializer, align 4
@.str.217 = private unnamed_addr constant [46 x i8] c"incorrect checksum length (%u), should be (2)\00", align 1

; Function Attrs: null_pointer_is_valid sspstrong uwtable
define internal void @dissect_hello_checksum_clv(ptr noundef %0, ptr noundef %1, ptr noundef %2, i32 noundef %3, ptr noundef %4, i32 noundef %5) #0 {
  %7 = alloca ptr, align 8
  %8 = alloca ptr, align 8
  %9 = alloca ptr, align 8
  %10 = alloca i32, align 4
  %11 = alloca ptr, align 8
  %12 = alloca i32, align 4
  %13 = alloca i16, align 2
  %14 = alloca i16, align 2
  %15 = alloca i32, align 4
  store ptr %0, ptr %7, align 8
  store ptr %1, ptr %8, align 8
  store ptr %2, ptr %9, align 8
  store i32 %3, ptr %10, align 4
  store ptr %4, ptr %11, align 8
  store i32 %5, ptr %12, align 4
  call void @llvm.lifetime.start.p0(i64 2, ptr %13) #4
  call void @llvm.lifetime.start.p0(i64 2, ptr %14) #4
  store i16 0, ptr %14, align 2
  %16 = load i32, ptr %12, align 4
  %17 = icmp ne i32 %16, 2
  br i1 %17, label %18, label %26

18:                                               ; preds = %6
  %19 = load ptr, ptr %9, align 8
  %20 = load ptr, ptr %8, align 8
  %21 = load ptr, ptr %7, align 8
  %22 = load i32, ptr %10, align 4
  %23 = load i32, ptr %12, align 4
  %24 = load i32, ptr %12, align 4
  %25 = call ptr (ptr, ptr, ptr, ptr, i32, i32, ptr, ...) @proto_tree_add_expert_format(ptr noundef %19, ptr noundef %20, ptr noundef @ei_isis_hello_short_clv, ptr noundef %21, i32 noundef %22, i32 noundef %23, ptr noundef @.str.217, i32 noundef %24)
  store i32 1, ptr %15, align 4
  br label %69

26:                                               ; preds = %6
  %27 = load ptr, ptr %7, align 8
  %28 = load i32, ptr %10, align 4
  %29 = call zeroext i16 @tvb_get_ntohs(ptr noundef %27, i32 noundef %28)
  store i16 %29, ptr %13, align 2
  %30 = load i16, ptr %13, align 2
  %31 = zext i16 %30 to i32
  %32 = icmp eq i32 %31, 0
  br i1 %32, label %33, label %41

33:                                               ; preds = %26
  %34 = load ptr, ptr %9, align 8
  %35 = load ptr, ptr %7, align 8
  %36 = load i32, ptr %10, align 4
  %37 = load i32, ptr @hf_isis_hello_checksum, align 4
  %38 = load i32, ptr @hf_isis_hello_checksum_status, align 4
  %39 = load ptr, ptr %8, align 8
  %40 = call ptr @proto_tree_add_checksum(ptr noundef %34, ptr noundef %35, i32 noundef %36, i32 noundef %37, i32 noundef %38, ptr noundef @ei_isis_hello_bad_checksum, ptr noundef %39, i32 noundef 0, i32 noundef 0, i32 noundef 16)
  br label %68

41:                                               ; preds = %26
  %42 = load ptr, ptr %7, align 8
  %43 = load ptr, ptr %11, align 8
  %44 = getelementptr inbounds nuw %struct.isis_data, ptr %43, i32 0, i32 2
  %45 = load i16, ptr %44, align 2
  %46 = zext i16 %45 to i32
  %47 = load i32, ptr %10, align 4
  %48 = call zeroext i1 @osi_check_and_get_checksum(ptr noundef %42, i32 noundef 0, i32 noundef %46, i32 noundef %47, ptr noundef %14)
  br i1 %48, label %49, label %59

49:                                               ; preds = %41
  %50 = load ptr, ptr %9, align 8
  %51 = load ptr, ptr %7, align 8
  %52 = load i32, ptr %10, align 4
  %53 = load i32, ptr @hf_isis_hello_checksum, align 4
  %54 = load i32, ptr @hf_isis_hello_checksum_status, align 4
  %55 = load ptr, ptr %8, align 8
  %56 = load i16, ptr %14, align 2
  %57 = zext i16 %56 to i32
  %58 = call ptr @proto_tree_add_checksum(ptr noundef %50, ptr noundef %51, i32 noundef %52, i32 noundef %53, i32 noundef %54, ptr noundef @ei_isis_hello_bad_checksum, ptr noundef %55, i32 noundef %57, i32 noundef 0, i32 noundef 1)
  br label %67

59:                                               ; preds = %41
  %60 = load ptr, ptr %9, align 8
  %61 = load ptr, ptr %7, align 8
  %62 = load i32, ptr %10, align 4
  %63 = load i32, ptr @hf_isis_hello_checksum, align 4
  %64 = load i32, ptr @hf_isis_hello_checksum_status, align 4
  %65 = load ptr, ptr %8, align 8
  %66 = call ptr @proto_tree_add_checksum(ptr noundef %60, ptr noundef %61, i32 noundef %62, i32 noundef %63, i32 noundef %64, ptr noundef @ei_isis_hello_bad_checksum, ptr noundef %65, i32 noundef 0, i32 noundef 0, i32 noundef 0)
  br label %67

67:                                               ; preds = %59, %49
  br label %68

68:                                               ; preds = %67, %33
  store i32 0, ptr %15, align 4
  br label %69

69:                                               ; preds = %68, %18
  call void @llvm.lifetime.end.p0(i64 2, ptr %14) #4
  call void @llvm.lifetime.end.p0(i64 2, ptr %13) #4
  %70 = load i32, ptr %15, align 4
  switch i32 %70, label %72 [
    i32 0, label %71
    i32 1, label %71
  ]

71:                                               ; preds = %69, %69
  ret void

72:                                               ; preds = %69
  unreachable
}