; Function Attrs: null_pointer_is_valid sspstrong uwtable
define internal void @dissect_hello_checksum_clv(ptr noundef %0, ptr noundef %1, ptr noundef %2, i32 noundef %3, ptr noundef readonly captures(none) %4, i32 noundef %5) #0 {
  %7 = alloca i16, align 2
  call void @llvm.lifetime.start.p0(i64 2, ptr nonnull %7) #5
  store i16 0, ptr %7, align 2
  %.not = icmp eq i32 %5, 2
  br i1 %.not, label %10, label %8

8:                                                ; preds = %6
  %9 = tail call ptr (ptr, ptr, ptr, ptr, i32, i32, ptr, ...) @proto_tree_add_expert_format(ptr noundef %2, ptr noundef %1, ptr noundef nonnull @ei_isis_hello_short_clv, ptr noundef %0, i32 noundef %3, i32 noundef %5, ptr noundef nonnull @.str.217, i32 noundef %5)
  br label %30

10:                                               ; preds = %6
  %11 = tail call zeroext i16 @tvb_get_ntohs(ptr noundef %0, i32 noundef %3)
  %12 = icmp eq i16 %11, 0
  br i1 %12, label %13, label %17

13:                                               ; preds = %10
  %14 = load i32, ptr @hf_isis_hello_checksum, align 4
  %15 = load i32, ptr @hf_isis_hello_checksum_status, align 4
  %16 = tail call ptr @proto_tree_add_checksum(ptr noundef %2, ptr noundef %0, i32 noundef %3, i32 noundef %14, i32 noundef %15, ptr noundef nonnull @ei_isis_hello_bad_checksum, ptr noundef %1, i32 noundef 0, i32 noundef 0, i32 noundef 16)
  br label %30

17:                                               ; preds = %10
  %18 = getelementptr inbounds nuw i8, ptr %4, i64 2
  %19 = load i16, ptr %18, align 2
  %20 = zext i16 %19 to i32
  %21 = call zeroext i1 @osi_check_and_get_checksum(ptr noundef %0, i32 noundef 0, i32 noundef %20, i32 noundef %3, ptr noundef nonnull %7)
  %22 = load i32, ptr @hf_isis_hello_checksum, align 4
  %23 = load i32, ptr @hf_isis_hello_checksum_status, align 4
  br i1 %21, label %24, label %28

24:                                               ; preds = %17
  %25 = load i16, ptr %7, align 2
  %26 = zext i16 %25 to i32
  %27 = call ptr @proto_tree_add_checksum(ptr noundef %2, ptr noundef %0, i32 noundef %3, i32 noundef %22, i32 noundef %23, ptr noundef nonnull @ei_isis_hello_bad_checksum, ptr noundef %1, i32 noundef %26, i32 noundef 0, i32 noundef 1)
  br label %30

28:                                               ; preds = %17
  %29 = call ptr @proto_tree_add_checksum(ptr noundef %2, ptr noundef %0, i32 noundef %3, i32 noundef %22, i32 noundef %23, ptr noundef nonnull @ei_isis_hello_bad_checksum, ptr noundef %1, i32 noundef 0, i32 noundef 0, i32 noundef 0)
  br label %30

30:                                               ; preds = %13, %28, %24, %8
  call void @llvm.lifetime.end.p0(i64 2, ptr nonnull %7) #5
  ret void
}